target datalayout = "e-m:e-p270:32:32-p271:32:32-p272:64:64-i64:64-i128:128-f80:128-n8:16:32:64-S128"
target triple = "x86_64-pc-linux-gnu"

%struct.Model = type { [257 x i16], [257 x i16], [257 x i8], i32, i32, i32 }
%struct.GetByteContext = type { ptr, ptr, ptr }
%struct.ArithCoder = type { i32, i32, i32, i32, %union.anon.3, ptr, ptr }
%union.anon.3 = type { ptr }

@ff_log2_tab = external constant [256 x i8], align 16

; Function Attrs: alwaysinline nounwind uwtable
define internal i32 @bytestream_get_byte(ptr noundef %0) #5 {
  %2 = alloca ptr, align 8
  store ptr %0, ptr %2, align 8, !tbaa !202
  %3 = load ptr, ptr %2, align 8, !tbaa !202
  %4 = load ptr, ptr %3, align 8, !tbaa !80
  %5 = getelementptr inbounds i8, ptr %4, i64 1
  store ptr %5, ptr %3, align 8, !tbaa !80
  %6 = load ptr, ptr %2, align 8, !tbaa !202
  %7 = load ptr, ptr %6, align 8, !tbaa !80
  %8 = getelementptr inbounds i8, ptr %7, i64 -1
  %9 = getelementptr inbounds i8, ptr %8, i64 0
  %10 = load i8, ptr %9, align 1, !tbaa !103
  %11 = zext i8 %10 to i32
  ret i32 %11
}

; Function Attrs: alwaysinline nounwind uwtable
define internal i32 @bytestream2_get_byteu(ptr noundef %0) #5 {
  %2 = alloca ptr, align 8
  store ptr %0, ptr %2, align 8, !tbaa !150
  %3 = load ptr, ptr %2, align 8, !tbaa !150
  %4 = getelementptr inbounds nuw %struct.GetByteContext, ptr %3, i32 0, i32 0
  %5 = call i32 @bytestream_get_byte(ptr noundef %4)
  ret i32 %5
}

; Function Attrs: alwaysinline nounwind uwtable
define internal i32 @bytestream2_get_byte(ptr noundef %0) #5 {
  %2 = alloca i32, align 4
  %3 = alloca ptr, align 8
  store ptr %0, ptr %3, align 8, !tbaa !150
  %4 = load ptr, ptr %3, align 8, !tbaa !150
  %5 = getelementptr inbounds nuw %struct.GetByteContext, ptr %4, i32 0, i32 1
  %6 = load ptr, ptr %5, align 8, !tbaa !155
  %7 = load ptr, ptr %3, align 8, !tbaa !150
  %8 = getelementptr inbounds nuw %struct.GetByteContext, ptr %7, i32 0, i32 0
  %9 = load ptr, ptr %8, align 8, !tbaa !152
  %10 = ptrtoint ptr %6 to i64
  %11 = ptrtoint ptr %9 to i64
  %12 = sub i64 %10, %11
  %13 = icmp slt i64 %12, 1
  br i1 %13, label %14, label %20

14:                                               ; preds = %1
  %15 = load ptr, ptr %3, align 8, !tbaa !150
  %16 = getelementptr inbounds nuw %struct.GetByteContext, ptr %15, i32 0, i32 1
  %17 = load ptr, ptr %16, align 8, !tbaa !155
  %18 = load ptr, ptr %3, align 8, !tbaa !150
  %19 = getelementptr inbounds nuw %struct.GetByteContext, ptr %18, i32 0, i32 0
  store ptr %17, ptr %19, align 8, !tbaa !152
  store i32 0, ptr %2, align 4
  br label %23

20:                                               ; preds = %1
  %21 = load ptr, ptr %3, align 8, !tbaa !150
  %22 = call i32 @bytestream2_get_byteu(ptr noundef %21)
  store i32 %22, ptr %2, align 4
  br label %23

23:                                               ; preds = %20, %14
  %24 = load i32, ptr %2, align 4
  ret i32 %24
}

; Function Attrs: nounwind uwtable
define internal void @arith2_rescale_interval(ptr noundef %0, i32 noundef %1, i32 noundef %2, i32 noundef %3, i32 noundef %4) #1 {
  %6 = alloca ptr, align 8
  %7 = alloca i32, align 4
  %8 = alloca i32, align 4
  %9 = alloca i32, align 4
  %10 = alloca i32, align 4
  %11 = alloca i32, align 4
  store ptr %0, ptr %6, align 8, !tbaa !156
  store i32 %1, ptr %7, align 4, !tbaa !35
  store i32 %2, ptr %8, align 4, !tbaa !35
  store i32 %3, ptr %9, align 4, !tbaa !35
  store i32 %4, ptr %10, align 4, !tbaa !35
  call void @llvm.lifetime.start.p0(i64 4, ptr %11) #10
  %12 = load i32, ptr %10, align 4, !tbaa !35
  %13 = shl i32 %12, 1
  %14 = load i32, ptr %7, align 4, !tbaa !35
  %15 = sub nsw i32 %13, %14
  store i32 %15, ptr %11, align 4, !tbaa !35
  %16 = load i32, ptr %9, align 4, !tbaa !35
  %17 = load i32, ptr %11, align 4, !tbaa !35
  %18 = icmp sgt i32 %16, %17
  br i1 %18, label %19, label %28

19:                                               ; preds = %5
  %20 = load i32, ptr %11, align 4, !tbaa !35
  %21 = load i32, ptr %9, align 4, !tbaa !35
  %22 = load i32, ptr %11, align 4, !tbaa !35
  %23 = sub nsw i32 %21, %22
  %24 = shl i32 %23, 1
  %25 = add nsw i32 %20, %24
  %26 = load ptr, ptr %6, align 8, !tbaa !156
  %27 = getelementptr inbounds nuw %struct.ArithCoder, ptr %26, i32 0, i32 1
  store i32 %25, ptr %27, align 4, !tbaa !160
  br label %32

28:                                               ; preds = %5
  %29 = load i32, ptr %9, align 4, !tbaa !35
  %30 = load ptr, ptr %6, align 8, !tbaa !156
  %31 = getelementptr inbounds nuw %struct.ArithCoder, ptr %30, i32 0, i32 1
  store i32 %29, ptr %31, align 4, !tbaa !160
  br label %32

32:                                               ; preds = %28, %19
  %33 = load ptr, ptr %6, align 8, !tbaa !156
  %34 = getelementptr inbounds nuw %struct.ArithCoder, ptr %33, i32 0, i32 0
  %35 = load i32, ptr %34, align 8, !tbaa !158
  %36 = sub nsw i32 %35, 1
  %37 = load ptr, ptr %6, align 8, !tbaa !156
  %38 = getelementptr inbounds nuw %struct.ArithCoder, ptr %37, i32 0, i32 1
  %39 = load i32, ptr %38, align 4, !tbaa !160
  %40 = add nsw i32 %39, %36
  store i32 %40, ptr %38, align 4, !tbaa !160
  %41 = load i32, ptr %8, align 4, !tbaa !35
  %42 = load i32, ptr %11, align 4, !tbaa !35
  %43 = icmp sgt i32 %41, %42
  br i1 %43, label %44, label %55

44:                                               ; preds = %32
  %45 = load i32, ptr %11, align 4, !tbaa !35
  %46 = load i32, ptr %8, align 4, !tbaa !35
  %47 = load i32, ptr %11, align 4, !tbaa !35
  %48 = sub nsw i32 %46, %47
  %49 = shl i32 %48, 1
  %50 = add nsw i32 %45, %49
  %51 = load ptr, ptr %6, align 8, !tbaa !156
  %52 = getelementptr inbounds nuw %struct.ArithCoder, ptr %51, i32 0, i32 0
  %53 = load i32, ptr %52, align 8, !tbaa !158
  %54 = add nsw i32 %53, %50
  store i32 %54, ptr %52, align 8, !tbaa !158
  br label %61

55:                                               ; preds = %32
  %56 = load i32, ptr %8, align 4, !tbaa !35
  %57 = load ptr, ptr %6, align 8, !tbaa !156
  %58 = getelementptr inbounds nuw %struct.ArithCoder, ptr %57, i32 0, i32 0
  %59 = load i32, ptr %58, align 8, !tbaa !158
  %60 = add nsw i32 %59, %56
  store i32 %60, ptr %58, align 8, !tbaa !158
  br label %61

61:                                               ; preds = %55, %44
  call void @llvm.lifetime.end.p0(i64 4, ptr %11) #10
  ret void
}

; Function Attrs: nounwind uwtable
define internal i32 @arith2_get_scaled_value(i32 noundef %0, i32 noundef %1, i32 noundef %2) #1 {
  %4 = alloca i32, align 4
  %5 = alloca i32, align 4
  %6 = alloca i32, align 4
  %7 = alloca i32, align 4
  %8 = alloca i32, align 4
  %9 = alloca i32, align 4
  store i32 %0, ptr %5, align 4, !tbaa !35
  store i32 %1, ptr %6, align 4, !tbaa !35
  store i32 %2, ptr %7, align 4, !tbaa !35
  call void @llvm.lifetime.start.p0(i64 4, ptr %8) #10
  %10 = load i32, ptr %6, align 4, !tbaa !35
  %11 = shl i32 %10, 1
  %12 = load i32, ptr %7, align 4, !tbaa !35
  %13 = sub nsw i32 %11, %12
  store i32 %13, ptr %8, align 4, !tbaa !35
  %14 = load i32, ptr %5, align 4, !tbaa !35
  %15 = load i32, ptr %8, align 4, !tbaa !35
  %16 = icmp sgt i32 %14, %15
  br i1 %16, label %17, label %24

17:                                               ; preds = %3
  %18 = load i32, ptr %8, align 4, !tbaa !35
  %19 = load i32, ptr %5, align 4, !tbaa !35
  %20 = load i32, ptr %8, align 4, !tbaa !35
  %21 = sub nsw i32 %19, %20
  %22 = ashr i32 %21, 1
  %23 = add nsw i32 %18, %22
  store i32 %23, ptr %4, align 4
  store i32 1, ptr %9, align 4
  br label %26

24:                                               ; preds = %3
  %25 = load i32, ptr %5, align 4, !tbaa !35
  store i32 %25, ptr %4, align 4
  store i32 1, ptr %9, align 4
  br label %26

26:                                               ; preds = %24, %17
  call void @llvm.lifetime.end.p0(i64 4, ptr %8) #10
  %27 = load i32, ptr %4, align 4
  ret i32 %27
}

; Function Attrs: alwaysinline nounwind willreturn memory(none) uwtable
define internal i32 @ff_log2_c(i32 noundef %0) #6 {
  %2 = alloca i32, align 4
  %3 = alloca i32, align 4
  store i32 %0, ptr %2, align 4, !tbaa !35
  call void @llvm.lifetime.start.p0(i64 4, ptr %3) #10
  store i32 0, ptr %3, align 4, !tbaa !35
  %4 = load i32, ptr %2, align 4, !tbaa !35
  %5 = and i32 %4, -65536
  %6 = icmp ne i32 %5, 0
  br i1 %6, label %7, label %12

7:                                                ; preds = %1
  %8 = load i32, ptr %2, align 4, !tbaa !35
  %9 = lshr i32 %8, 16
  store i32 %9, ptr %2, align 4, !tbaa !35
  %10 = load i32, ptr %3, align 4, !tbaa !35
  %11 = add nsw i32 %10, 16
  store i32 %11, ptr %3, align 4, !tbaa !35
  br label %12

12:                                               ; preds = %7, %1
  %13 = load i32, ptr %2, align 4, !tbaa !35
  %14 = and i32 %13, 65280
  %15 = icmp ne i32 %14, 0
  br i1 %15, label %16, label %21

16:                                               ; preds = %12
  %17 = load i32, ptr %2, align 4, !tbaa !35
  %18 = lshr i32 %17, 8
  store i32 %18, ptr %2, align 4, !tbaa !35
  %19 = load i32, ptr %3, align 4, !tbaa !35
  %20 = add nsw i32 %19, 8
  store i32 %20, ptr %3, align 4, !tbaa !35
  br label %21

21:                                               ; preds = %16, %12
  %22 = load i32, ptr %2, align 4, !tbaa !35
  %23 = zext i32 %22 to i64
  %24 = getelementptr inbounds nuw [256 x i8], ptr @ff_log2_tab, i64 0, i64 %23
  %25 = load i8, ptr %24, align 1, !tbaa !103
  %26 = zext i8 %25 to i32
  %27 = load i32, ptr %3, align 4, !tbaa !35
  %28 = add nsw i32 %27, %26
  store i32 %28, ptr %3, align 4, !tbaa !35
  %29 = load i32, ptr %3, align 4, !tbaa !35
  call void @llvm.lifetime.end.p0(i64 4, ptr %3) #10
  ret i32 %29
}

; Function Attrs: nounwind uwtable
define internal void @arith2_normalise(ptr noundef %0) #1 {
  %2 = alloca ptr, align 8
  store ptr %0, ptr %2, align 8, !tbaa !156
  br label %3

3:                                                ; preds = %37, %1
  %4 = load ptr, ptr %2, align 8, !tbaa !156
  %5 = getelementptr inbounds nuw %struct.ArithCoder, ptr %4, i32 0, i32 1
  %6 = load i32, ptr %5, align 4, !tbaa !160
  %7 = ashr i32 %6, 15
  %8 = load ptr, ptr %2, align 8, !tbaa !156
  %9 = getelementptr inbounds nuw %struct.ArithCoder, ptr %8, i32 0, i32 0
  %10 = load i32, ptr %9, align 8, !tbaa !158
  %11 = ashr i32 %10, 15
  %12 = sub nsw i32 %7, %11
  %13 = icmp slt i32 %12, 2
  br i1 %13, label %14, label %68

14:                                               ; preds = %3
  %15 = load ptr, ptr %2, align 8, !tbaa !156
  %16 = getelementptr inbounds nuw %struct.ArithCoder, ptr %15, i32 0, i32 0
  %17 = load i32, ptr %16, align 8, !tbaa !158
  %18 = load ptr, ptr %2, align 8, !tbaa !156
  %19 = getelementptr inbounds nuw %struct.ArithCoder, ptr %18, i32 0, i32 1
  %20 = load i32, ptr %19, align 4, !tbaa !160
  %21 = xor i32 %17, %20
  %22 = and i32 %21, 65536
  %23 = icmp ne i32 %22, 0
  br i1 %23, label %24, label %37

24:                                               ; preds = %14
  %25 = load ptr, ptr %2, align 8, !tbaa !156
  %26 = getelementptr inbounds nuw %struct.ArithCoder, ptr %25, i32 0, i32 1
  %27 = load i32, ptr %26, align 4, !tbaa !160
  %28 = xor i32 %27, 32768
  store i32 %28, ptr %26, align 4, !tbaa !160
  %29 = load ptr, ptr %2, align 8, !tbaa !156
  %30 = getelementptr inbounds nuw %struct.ArithCoder, ptr %29, i32 0, i32 2
  %31 = load i32, ptr %30, align 8, !tbaa !161
  %32 = xor i32 %31, 32768
  store i32 %32, ptr %30, align 8, !tbaa !161
  %33 = load ptr, ptr %2, align 8, !tbaa !156
  %34 = getelementptr inbounds nuw %struct.ArithCoder, ptr %33, i32 0, i32 0
  %35 = load i32, ptr %34, align 8, !tbaa !158
  %36 = xor i32 %35, 32768
  store i32 %36, ptr %34, align 8, !tbaa !158
  br label %37

37:                                               ; preds = %24, %14
  %38 = load ptr, ptr %2, align 8, !tbaa !156
  %39 = getelementptr inbounds nuw %struct.ArithCoder, ptr %38, i32 0, i32 1
  %40 = load i32, ptr %39, align 4, !tbaa !160
  %41 = trunc i32 %40 to i16
  %42 = zext i16 %41 to i32
  %43 = shl i32 %42, 8
  %44 = or i32 %43, 255
  %45 = load ptr, ptr %2, align 8, !tbaa !156
  %46 = getelementptr inbounds nuw %struct.ArithCoder, ptr %45, i32 0, i32 1
  store i32 %44, ptr %46, align 4, !tbaa !160
  %47 = load ptr, ptr %2, align 8, !tbaa !156
  %48 = getelementptr inbounds nuw %struct.ArithCoder, ptr %47, i32 0, i32 2
  %49 = load i32, ptr %48, align 8, !tbaa !161
  %50 = trunc i32 %49 to i16
  %51 = zext i16 %50 to i32
  %52 = shl i32 %51, 8
  %53 = load ptr, ptr %2, align 8, !tbaa !156
  %54 = getelementptr inbounds nuw %struct.ArithCoder, ptr %53, i32 0, i32 4
  %55 = load ptr, ptr %54, align 8, !tbaa !103
  %56 = call i32 @bytestream2_get_byte(ptr noundef %55)
  %57 = or i32 %52, %56
  %58 = load ptr, ptr %2, align 8, !tbaa !156
  %59 = getelementptr inbounds nuw %struct.ArithCoder, ptr %58, i32 0, i32 2
  store i32 %57, ptr %59, align 8, !tbaa !161
  %60 = load ptr, ptr %2, align 8, !tbaa !156
  %61 = getelementptr inbounds nuw %struct.ArithCoder, ptr %60, i32 0, i32 0
  %62 = load i32, ptr %61, align 8, !tbaa !158
  %63 = trunc i32 %62 to i16
  %64 = zext i16 %63 to i32
  %65 = shl i32 %64, 8
  %66 = load ptr, ptr %2, align 8, !tbaa !156
  %67 = getelementptr inbounds nuw %struct.ArithCoder, ptr %66, i32 0, i32 0
  store i32 %65, ptr %67, align 8, !tbaa !158
  br label %3, !llvm.loop !204

68:                                               ; preds = %3
  ret void
}

; Function Attrs: nounwind uwtable
define internal i32 @arith2_get_prob(ptr noundef %0, ptr noundef %1) #1 {
  %3 = alloca ptr, align 8
  %4 = alloca ptr, align 8
  %5 = alloca i32, align 4
  %6 = alloca i32, align 4
  %7 = alloca i32, align 4
  %8 = alloca i32, align 4
  %9 = alloca i32, align 4
  store ptr %0, ptr %3, align 8, !tbaa !156
  store ptr %1, ptr %4, align 8, !tbaa !168
  call void @llvm.lifetime.start.p0(i64 4, ptr %5) #10
  %10 = load ptr, ptr %3, align 8, !tbaa !156
  %11 = getelementptr inbounds nuw %struct.ArithCoder, ptr %10, i32 0, i32 1
  %12 = load i32, ptr %11, align 4, !tbaa !160
  %13 = load ptr, ptr %3, align 8, !tbaa !156
  %14 = getelementptr inbounds nuw %struct.ArithCoder, ptr %13, i32 0, i32 0
  %15 = load i32, ptr %14, align 8, !tbaa !158
  %16 = sub nsw i32 %12, %15
  %17 = add nsw i32 %16, 1
  store i32 %17, ptr %5, align 4, !tbaa !35
  call void @llvm.lifetime.start.p0(i64 4, ptr %6) #10
  %18 = load ptr, ptr %4, align 8, !tbaa !168
  %19 = load i16, ptr %18, align 2, !tbaa !167
  %20 = sext i16 %19 to i32
  store i32 %20, ptr %6, align 4, !tbaa !35
  call void @llvm.lifetime.start.p0(i64 4, ptr %7) #10
  %21 = load i32, ptr %5, align 4, !tbaa !35
  %22 = call i32 @ff_log2_c(i32 noundef %21) #12
  %23 = load i32, ptr %6, align 4, !tbaa !35
  %24 = call i32 @ff_log2_c(i32 noundef %23) #12
  %25 = sub nsw i32 %22, %24
  store i32 %25, ptr %7, align 4, !tbaa !35
  call void @llvm.lifetime.start.p0(i64 4, ptr %8) #10
  store i32 0, ptr %8, align 4, !tbaa !35
  call void @llvm.lifetime.start.p0(i64 4, ptr %9) #10
  %26 = load i32, ptr %6, align 4, !tbaa !35
  %27 = load i32, ptr %7, align 4, !tbaa !35
  %28 = shl i32 %26, %27
  %29 = load i32, ptr %5, align 4, !tbaa !35
  %30 = icmp sgt i32 %28, %29
  br i1 %30, label %31, label %34

31:                                               ; preds = %2
  %32 = load i32, ptr %7, align 4, !tbaa !35
  %33 = add nsw i32 %32, -1
  store i32 %33, ptr %7, align 4, !tbaa !35
  br label %34

34:                                               ; preds = %31, %2
  %35 = load i32, ptr %7, align 4, !tbaa !35
  %36 = load i32, ptr %6, align 4, !tbaa !35
  %37 = shl i32 %36, %35
  store i32 %37, ptr %6, align 4, !tbaa !35
  %38 = load ptr, ptr %3, align 8, !tbaa !156
  %39 = getelementptr inbounds nuw %struct.ArithCoder, ptr %38, i32 0, i32 2
  %40 = load i32, ptr %39, align 8, !tbaa !161
  %41 = load ptr, ptr %3, align 8, !tbaa !156
  %42 = getelementptr inbounds nuw %struct.ArithCoder, ptr %41, i32 0, i32 0
  %43 = load i32, ptr %42, align 8, !tbaa !158
  %44 = sub nsw i32 %40, %43
  %45 = load i32, ptr %6, align 4, !tbaa !35
  %46 = load i32, ptr %5, align 4, !tbaa !35
  %47 = call i32 @arith2_get_scaled_value(i32 noundef %44, i32 noundef %45, i32 noundef %46)
  %48 = load i32, ptr %7, align 4, !tbaa !35
  %49 = ashr i32 %47, %48
  store i32 %49, ptr %9, align 4, !tbaa !35
  br label %50

50:                                               ; preds = %60, %34
  %51 = load ptr, ptr %4, align 8, !tbaa !168
  %52 = load i32, ptr %8, align 4, !tbaa !35
  %53 = add nsw i32 %52, 1
  store i32 %53, ptr %8, align 4, !tbaa !35
  %54 = sext i32 %53 to i64
  %55 = getelementptr inbounds i16, ptr %51, i64 %54
  %56 = load i16, ptr %55, align 2, !tbaa !167
  %57 = sext i16 %56 to i32
  %58 = load i32, ptr %9, align 4, !tbaa !35
  %59 = icmp sgt i32 %57, %58
  br i1 %59, label %60, label %61

60:                                               ; preds = %50
  br label %50, !llvm.loop !203

61:                                               ; preds = %50
  %62 = load ptr, ptr %3, align 8, !tbaa !156
  %63 = load i32, ptr %5, align 4, !tbaa !35
  %64 = load ptr, ptr %4, align 8, !tbaa !168
  %65 = load i32, ptr %8, align 4, !tbaa !35
  %66 = sext i32 %65 to i64
  %67 = getelementptr inbounds i16, ptr %64, i64 %66
  %68 = load i16, ptr %67, align 2, !tbaa !167
  %69 = sext i16 %68 to i32
  %70 = load i32, ptr %7, align 4, !tbaa !35
  %71 = shl i32 %69, %70
  %72 = load ptr, ptr %4, align 8, !tbaa !168
  %73 = load i32, ptr %8, align 4, !tbaa !35
  %74 = sub nsw i32 %73, 1
  %75 = sext i32 %74 to i64
  %76 = getelementptr inbounds i16, ptr %72, i64 %75
  %77 = load i16, ptr %76, align 2, !tbaa !167
  %78 = sext i16 %77 to i32
  %79 = load i32, ptr %7, align 4, !tbaa !35
  %80 = shl i32 %78, %79
  %81 = load i32, ptr %6, align 4, !tbaa !35
  call void @arith2_rescale_interval(ptr noundef %62, i32 noundef %63, i32 noundef %71, i32 noundef %80, i32 noundef %81)
  %82 = load i32, ptr %8, align 4, !tbaa !35
  call void @llvm.lifetime.end.p0(i64 4, ptr %9) #10
  call void @llvm.lifetime.end.p0(i64 4, ptr %8) #10
  call void @llvm.lifetime.end.p0(i64 4, ptr %7) #10
  call void @llvm.lifetime.end.p0(i64 4, ptr %6) #10
  call void @llvm.lifetime.end.p0(i64 4, ptr %5) #10
  ret i32 %82
}

; Function Attrs: nounwind uwtable
define internal i32 @arith2_get_model_sym(ptr noundef %0, ptr noundef %1) #1 {
  %3 = alloca ptr, align 8
  %4 = alloca ptr, align 8
  %5 = alloca i32, align 4
  %6 = alloca i32, align 4
  store ptr %0, ptr %3, align 8, !tbaa !156
  store ptr %1, ptr %4, align 8, !tbaa !200
  call void @llvm.lifetime.start.p0(i64 4, ptr %5) #10
  call void @llvm.lifetime.start.p0(i64 4, ptr %6) #10
  %7 = load ptr, ptr %3, align 8, !tbaa !156
  %8 = load ptr, ptr %4, align 8, !tbaa !200
  %9 = getelementptr inbounds nuw %struct.Model, ptr %8, i32 0, i32 0
  %10 = getelementptr inbounds [257 x i16], ptr %9, i64 0, i64 0
  %11 = call i32 @arith2_get_prob(ptr noundef %7, ptr noundef %10)
  store i32 %11, ptr %5, align 4, !tbaa !35
  %12 = load ptr, ptr %4, align 8, !tbaa !200
  %13 = getelementptr inbounds nuw %struct.Model, ptr %12, i32 0, i32 2
  %14 = load i32, ptr %5, align 4, !tbaa !35
  %15 = sext i32 %14 to i64
  %16 = getelementptr inbounds [257 x i8], ptr %13, i64 0, i64 %15
  %17 = load i8, ptr %16, align 1, !tbaa !103
  %18 = zext i8 %17 to i32
  store i32 %18, ptr %6, align 4, !tbaa !35
  %19 = load ptr, ptr %4, align 8, !tbaa !200
  %20 = load i32, ptr %5, align 4, !tbaa !35
  call void @ff_mss12_model_update(ptr noundef %19, i32 noundef %20)
  %21 = load ptr, ptr %3, align 8, !tbaa !156
  call void @arith2_normalise(ptr noundef %21)
  %22 = load i32, ptr %6, align 4, !tbaa !35
  call void @llvm.lifetime.end.p0(i64 4, ptr %6) #10
  call void @llvm.lifetime.end.p0(i64 4, ptr %5) #10
  ret i32 %22
}