; Function Attrs: nounwind uwtable
define internal range(i32 0, 256) i32 @arith2_get_model_sym(ptr noundef captures(none) %0, ptr noundef %1) #1 {
  %3 = getelementptr inbounds nuw i8, ptr %0, i64 4
  %4 = load i32, ptr %3, align 4, !tbaa !89
  %5 = load i32, ptr %0, align 8, !tbaa !87
  %6 = sub nsw i32 %4, %5
  %7 = add nsw i32 %6, 1
  %8 = load i16, ptr %1, align 2, !tbaa !153
  %9 = sext i16 %8 to i32
  %.not.i.i = icmp ult i32 %7, 65536
  %10 = lshr i32 %7, 16
  %spec.select.i.i = select i1 %.not.i.i, i32 %7, i32 %10
  %spec.select12.i.i = select i1 %.not.i.i, i32 0, i32 16
  %.not11.i.i = icmp samesign ult i32 %spec.select.i.i, 256
  %11 = lshr i32 %spec.select.i.i, 8
  %12 = or disjoint i32 %spec.select12.i.i, 8
  %.110.i.i = select i1 %.not11.i.i, i32 %spec.select.i.i, i32 %11
  %.1.i.i = select i1 %.not11.i.i, i32 %spec.select12.i.i, i32 %12
  %13 = zext nneg i32 %.110.i.i to i64
  %14 = getelementptr inbounds nuw [256 x i8], ptr @ff_log2_tab, i64 0, i64 %13
  %15 = load i8, ptr %14, align 1, !tbaa !75
  %16 = zext i8 %15 to i32
  %.not.i30.i = icmp sgt i16 %8, -1
  %spec.select.i31.i = select i1 %.not.i30.i, i32 %9, i32 65535
  %spec.select12.i32.neg.i = select i1 %.not.i30.i, i32 0, i32 -16
  %.not11.i33.i = icmp samesign ult i32 %spec.select.i31.i, 256
  %17 = lshr i32 %spec.select.i31.i, 8
  %.neg38.i = add nsw i32 %spec.select12.i32.neg.i, -8
  %.110.i34.i = select i1 %.not11.i33.i, i32 %spec.select.i31.i, i32 %17
  %.1.i35.neg39.i = select i1 %.not11.i33.i, i32 %spec.select12.i32.neg.i, i32 %.neg38.i
  %18 = zext nneg i32 %.110.i34.i to i64
  %19 = getelementptr inbounds nuw [256 x i8], ptr @ff_log2_tab, i64 0, i64 %18
  %20 = load i8, ptr %19, align 1, !tbaa !75
  %21 = zext i8 %20 to i32
  %.neg36.i = sub nsw i32 %16, %21
  %22 = add nsw i32 %.neg36.i, %.1.i35.neg39.i
  %23 = add nsw i32 %22, %.1.i.i
  %24 = shl i32 %9, %23
  %25 = icmp sgt i32 %24, %7
  %26 = sext i1 %25 to i32
  %spec.select.i = add nsw i32 %23, %26
  %27 = shl i32 %9, %spec.select.i
  %28 = getelementptr inbounds nuw i8, ptr %0, i64 8
  %29 = load i32, ptr %28, align 8, !tbaa !91
  %30 = sub nsw i32 %29, %5
  %31 = shl i32 %27, 1
  %32 = sub nsw i32 %31, %7
  %33 = icmp sgt i32 %30, %32
  %34 = sub nsw i32 %30, %32
  %35 = ashr i32 %34, 1
  %36 = add nsw i32 %35, %32
  %.0.i.i = select i1 %33, i32 %36, i32 %30
  %37 = ashr i32 %.0.i.i, %spec.select.i
  br label %38

38:                                               ; preds = %38, %2
  %indvars.iv.i = phi i64 [ %indvars.iv.next.i, %38 ], [ 0, %2 ]
  %indvars.iv.next.i = add nuw nsw i64 %indvars.iv.i, 1
  %39 = getelementptr inbounds nuw i16, ptr %1, i64 %indvars.iv.next.i
  %40 = load i16, ptr %39, align 2, !tbaa !153
  %41 = sext i16 %40 to i32
  %42 = icmp slt i32 %37, %41
  br i1 %42, label %38, label %arith2_get_prob.exit, !llvm.loop !176

arith2_get_prob.exit:                             ; preds = %38
  %43 = trunc nuw nsw i64 %indvars.iv.next.i to i32
  %44 = shl i32 %41, %spec.select.i
  %45 = and i64 %indvars.iv.i, 4294967295
  %46 = getelementptr inbounds nuw i16, ptr %1, i64 %45
  %47 = load i16, ptr %46, align 2, !tbaa !153
  %48 = sext i16 %47 to i32
  %49 = shl i32 %48, %spec.select.i
  %50 = icmp sgt i32 %49, %32
  %51 = sub nsw i32 %49, %32
  %52 = shl i32 %51, 1
  %53 = add nsw i32 %52, %32
  %.sink.i.i = select i1 %50, i32 %53, i32 %49
  %54 = add nsw i32 %5, -1
  %55 = add nsw i32 %54, %.sink.i.i
  store i32 %55, ptr %3, align 4, !tbaa !89
  %56 = icmp sgt i32 %44, %32
  %57 = sub nsw i32 %44, %32
  %58 = shl i32 %57, 1
  %59 = add nsw i32 %58, %32
  %.pn.i.i = select i1 %56, i32 %59, i32 %44
  %storemerge.i.i = add nsw i32 %.pn.i.i, %5
  store i32 %storemerge.i.i, ptr %0, align 8, !tbaa !87
  %60 = getelementptr inbounds nuw i8, ptr %1, i64 1028
  %sext = shl i64 %indvars.iv.next.i, 32
  %61 = ashr exact i64 %sext, 32
  %62 = getelementptr inbounds [257 x i8], ptr %60, i64 0, i64 %61
  %63 = load i8, ptr %62, align 1, !tbaa !75
  tail call void @ff_mss12_model_update(ptr noundef nonnull %1, i32 noundef %43) #11
  %.promoted.i = load i32, ptr %3, align 4, !tbaa !89
  %.promoted14.i = load i32, ptr %0, align 8, !tbaa !87
  %64 = ashr i32 %.promoted.i, 15
  %65 = ashr i32 %.promoted14.i, 15
  %66 = sub nsw i32 %64, %65
  %67 = icmp slt i32 %66, 2
  br i1 %67, label %.lr.ph.i, label %arith2_normalise.exit

.lr.ph.i:                                         ; preds = %arith2_get_prob.exit
  %68 = getelementptr inbounds nuw i8, ptr %0, i64 16
  %.promoted15.i = load i32, ptr %28, align 8, !tbaa !91
  br label %69

69:                                               ; preds = %bytestream2_get_byte.exit.i, %.lr.ph.i
  %70 = phi i32 [ %.promoted15.i, %.lr.ph.i ], [ %101, %bytestream2_get_byte.exit.i ]
  %71 = phi i32 [ %.promoted.i, %.lr.ph.i ], [ %85, %bytestream2_get_byte.exit.i ]
  %72 = phi i32 [ %.promoted14.i, %.lr.ph.i ], [ %103, %bytestream2_get_byte.exit.i ]
  %73 = xor i32 %72, %71
  %74 = and i32 %73, 65536
  %.not.i = icmp eq i32 %74, 0
  br i1 %.not.i, label %79, label %75

75:                                               ; preds = %69
  %76 = xor i32 %71, 32768
  %77 = xor i32 %70, 32768
  store i32 %77, ptr %28, align 8, !tbaa !91
  %78 = xor i32 %72, 32768
  store i32 %78, ptr %0, align 8, !tbaa !87
  br label %79

79:                                               ; preds = %75, %69
  %80 = phi i32 [ %77, %75 ], [ %70, %69 ]
  %81 = phi i32 [ %78, %75 ], [ %72, %69 ]
  %82 = phi i32 [ %76, %75 ], [ %71, %69 ]
  %83 = shl i32 %82, 8
  %84 = and i32 %83, 16776960
  %85 = or disjoint i32 %84, 255
  store i32 %85, ptr %3, align 4, !tbaa !89
  %86 = shl i32 %80, 8
  %87 = and i32 %86, 16776960
  %88 = load ptr, ptr %68, align 8, !tbaa !75
  %89 = getelementptr inbounds nuw i8, ptr %88, i64 8
  %90 = load ptr, ptr %89, align 8, !tbaa !86
  %91 = load ptr, ptr %88, align 8, !tbaa !90
  %92 = ptrtoint ptr %90 to i64
  %93 = ptrtoint ptr %91 to i64
  %94 = sub i64 %92, %93
  %95 = icmp slt i64 %94, 1
  br i1 %95, label %96, label %97

96:                                               ; preds = %79
  store ptr %90, ptr %88, align 8, !tbaa !90
  br label %bytestream2_get_byte.exit.i

97:                                               ; preds = %79
  %98 = getelementptr inbounds nuw i8, ptr %91, i64 1
  store ptr %98, ptr %88, align 8, !tbaa !95
  %99 = load i8, ptr %91, align 1, !tbaa !75
  %100 = zext i8 %99 to i32
  br label %bytestream2_get_byte.exit.i

bytestream2_get_byte.exit.i:                      ; preds = %97, %96
  %.0.i.i7 = phi i32 [ 0, %96 ], [ %100, %97 ]
  %101 = or disjoint i32 %.0.i.i7, %87
  store i32 %101, ptr %28, align 8, !tbaa !91
  %102 = shl i32 %81, 8
  %103 = and i32 %102, 16776960
  store i32 %103, ptr %0, align 8, !tbaa !87
  %104 = lshr i32 %84, 15
  %105 = lshr i32 %103, 15
  %106 = sub nsw i32 %104, %105
  %107 = icmp slt i32 %106, 2
  br i1 %107, label %69, label %arith2_normalise.exit, !llvm.loop !96

arith2_normalise.exit:                            ; preds = %bytestream2_get_byte.exit.i, %arith2_get_prob.exit
  %108 = zext i8 %63 to i32
  ret i32 %108
}